; Function Attrs: inlinehint nounwind uwtable
define internal fastcc i32 @pmix_bfrops_base_tma_copy_topology(ptr noundef writeonly captures(none) %0, ptr noundef %1) unnamed_addr #8 {
  %calloc.i = tail call noalias noundef dereferenceable_or_null(16) ptr @calloc(i64 1, i64 16)
  %3 = icmp eq ptr %calloc.i, null
  br i1 %3, label %9, label %4, !prof !116

4:                                                ; preds = %2
  %5 = tail call i32 @pmix_hwloc_copy_topology(ptr noundef nonnull %calloc.i, ptr noundef %1) #24
  %6 = icmp eq i32 %5, 0
  br i1 %6, label %7, label %8

7:                                                ; preds = %4
  store ptr %calloc.i, ptr %0, align 8, !tbaa !26
  br label %9

8:                                                ; preds = %4
  tail call void @free(ptr noundef nonnull %calloc.i) #24
  br label %9

9:                                                ; preds = %7, %8, %2
  %.0 = phi i32 [ -32, %2 ], [ %5, %8 ], [ 0, %7 ]
  ret i32 %.0
}